target datalayout = "e-m:e-p270:32:32-p271:32:32-p272:64:64-i64:64-i128:128-f80:128-n8:16:32:64-S128"
target triple = "x86_64-pc-linux-gnu"

%struct.PageHeaderData = type { %struct.PageXLogRecPtr, i16, i16, i16, i16, i16, i16, i32, [0 x %struct.ItemIdData] }
%struct.PageXLogRecPtr = type { i32, i32 }
%struct.ItemIdData = type { i32 }
%struct.SpGistPageOpaqueData = type { i16, i16, i16, i16 }

@.str.1 = private unnamed_addr constant [11 x i8] c"spgutils.c\00", align 1
@.str.10 = private unnamed_addr constant [52 x i8] c"failed to add item of size %zu to SPGiST index page\00", align 1
@__func__.SpGistPageAddNewItem = private unnamed_addr constant [21 x i8] c"SpGistPageAddNewItem\00", align 1

; Function Attrs: inlinehint nounwind uwtable
define internal ptr @PageGetItem(ptr noundef %0, ptr noundef %1) #2 {
  %3 = alloca ptr, align 8
  %4 = alloca ptr, align 8
  store ptr %0, ptr %3, align 8
  store ptr %1, ptr %4, align 8
  %5 = load ptr, ptr %3, align 8
  %6 = load ptr, ptr %4, align 8
  %7 = load i32, ptr %6, align 4
  %8 = and i32 %7, 32767
  %9 = sext i32 %8 to i64
  %10 = getelementptr inbounds i8, ptr %5, i64 %9
  ret ptr %10
}

; Function Attrs: inlinehint nounwind uwtable
define internal ptr @PageGetItemId(ptr noundef %0, i16 noundef zeroext %1) #2 {
  %3 = alloca ptr, align 8
  %4 = alloca i16, align 2
  store ptr %0, ptr %3, align 8
  store i16 %1, ptr %4, align 2
  %5 = load ptr, ptr %3, align 8
  %6 = getelementptr inbounds nuw %struct.PageHeaderData, ptr %5, i32 0, i32 8
  %7 = load i16, ptr %4, align 2
  %8 = zext i16 %7 to i32
  %9 = sub i32 %8, 1
  %10 = sext i32 %9 to i64
  %11 = getelementptr inbounds [0 x %struct.ItemIdData], ptr %6, i64 0, i64 %10
  ret ptr %11
}

; Function Attrs: inlinehint nounwind uwtable
define internal zeroext i16 @PageGetMaxOffsetNumber(ptr noundef %0) #2 {
  %2 = alloca i16, align 2
  %3 = alloca ptr, align 8
  %4 = alloca ptr, align 8
  %5 = alloca i32, align 4
  store ptr %0, ptr %3, align 8
  call void @llvm.lifetime.start.p0(i64 8, ptr %4) #7
  %6 = load ptr, ptr %3, align 8
  store ptr %6, ptr %4, align 8
  %7 = load ptr, ptr %4, align 8
  %8 = getelementptr inbounds nuw %struct.PageHeaderData, ptr %7, i32 0, i32 3
  %9 = load i16, ptr %8, align 4
  %10 = zext i16 %9 to i64
  %11 = icmp ule i64 %10, 24
  br i1 %11, label %12, label %13

12:                                               ; preds = %1
  store i16 0, ptr %2, align 2
  store i32 1, ptr %5, align 4
  br label %21

13:                                               ; preds = %1
  %14 = load ptr, ptr %4, align 8
  %15 = getelementptr inbounds nuw %struct.PageHeaderData, ptr %14, i32 0, i32 3
  %16 = load i16, ptr %15, align 4
  %17 = zext i16 %16 to i64
  %18 = sub i64 %17, 24
  %19 = udiv i64 %18, 4
  %20 = trunc i64 %19 to i16
  store i16 %20, ptr %2, align 2
  store i32 1, ptr %5, align 4
  br label %21

21:                                               ; preds = %13, %12
  call void @llvm.lifetime.end.p0(i64 8, ptr %4) #7
  %22 = load i16, ptr %2, align 2
  ret i16 %22
}

; Function Attrs: inlinehint nounwind uwtable
define internal void @PageValidateSpecialPointer(ptr noundef %0) #2 {
  %2 = alloca ptr, align 8
  store ptr %0, ptr %2, align 8
  ret void
}

; Function Attrs: nounwind uwtable
define dso_local zeroext i16 @SpGistPageAddNewItem(ptr noundef %0, ptr noundef %1, ptr noundef %2, i64 noundef %3, ptr noundef %4, i1 noundef zeroext %5) #0 {
  %7 = alloca i16, align 2
  %8 = alloca ptr, align 8
  %9 = alloca ptr, align 8
  %10 = alloca ptr, align 8
  %11 = alloca i64, align 8
  %12 = alloca ptr, align 8
  %13 = alloca i8, align 1
  %14 = alloca ptr, align 8
  %15 = alloca i16, align 2
  %16 = alloca i16, align 2
  %17 = alloca i16, align 2
  %18 = alloca ptr, align 8
  %19 = alloca i32, align 4
  store ptr %0, ptr %8, align 8
  store ptr %1, ptr %9, align 8
  store ptr %2, ptr %10, align 8
  store i64 %3, ptr %11, align 8
  store ptr %4, ptr %12, align 8
  %20 = zext i1 %5 to i8
  store i8 %20, ptr %13, align 1
  call void @llvm.lifetime.start.p0(i64 8, ptr %14) #7
  %21 = load ptr, ptr %9, align 8
  call void @PageValidateSpecialPointer(ptr noundef %21)
  %22 = load ptr, ptr %9, align 8
  %23 = load ptr, ptr %9, align 8
  %24 = getelementptr inbounds nuw %struct.PageHeaderData, ptr %23, i32 0, i32 5
  %25 = load i16, ptr %24, align 4
  %26 = zext i16 %25 to i32
  %27 = sext i32 %26 to i64
  %28 = getelementptr inbounds i8, ptr %22, i64 %27
  store ptr %28, ptr %14, align 8
  call void @llvm.lifetime.start.p0(i64 2, ptr %15) #7
  call void @llvm.lifetime.start.p0(i64 2, ptr %16) #7
  call void @llvm.lifetime.start.p0(i64 2, ptr %17) #7
  %29 = load ptr, ptr %14, align 8
  %30 = getelementptr inbounds nuw %struct.SpGistPageOpaqueData, ptr %29, i32 0, i32 2
  %31 = load i16, ptr %30, align 2
  %32 = zext i16 %31 to i32
  %33 = icmp sgt i32 %32, 0
  br i1 %33, label %34, label %145

34:                                               ; preds = %6
  %35 = load ptr, ptr %9, align 8
  %36 = call i64 @PageGetExactFreeSpace(ptr noundef %35)
  %37 = add i64 %36, 16
  %38 = load i64, ptr %11, align 8
  %39 = add i64 %38, 7
  %40 = and i64 %39, -8
  %41 = icmp uge i64 %37, %40
  br i1 %41, label %42, label %145

42:                                               ; preds = %34
  %43 = load ptr, ptr %9, align 8
  %44 = call zeroext i16 @PageGetMaxOffsetNumber(ptr noundef %43)
  store i16 %44, ptr %16, align 2
  store i16 0, ptr %17, align 2
  br label %45

45:                                               ; preds = %96, %42
  %46 = load ptr, ptr %12, align 8
  %47 = icmp ne ptr %46, null
  br i1 %47, label %48, label %56

48:                                               ; preds = %45
  %49 = load ptr, ptr %12, align 8
  %50 = load i16, ptr %49, align 2
  %51 = zext i16 %50 to i32
  %52 = icmp ne i32 %51, 0
  br i1 %52, label %53, label %56

53:                                               ; preds = %48
  %54 = load ptr, ptr %12, align 8
  %55 = load i16, ptr %54, align 2
  store i16 %55, ptr %15, align 2
  br label %57

56:                                               ; preds = %48, %45
  store i16 1, ptr %15, align 2
  br label %57

57:                                               ; preds = %56, %53
  br label %58

58:                                               ; preds = %80, %57
  %59 = load i16, ptr %15, align 2
  %60 = zext i16 %59 to i32
  %61 = load i16, ptr %16, align 2
  %62 = zext i16 %61 to i32
  %63 = icmp sle i32 %60, %62
  br i1 %63, label %64, label %83

64:                                               ; preds = %58
  call void @llvm.lifetime.start.p0(i64 8, ptr %18) #7
  %65 = load ptr, ptr %9, align 8
  %66 = load ptr, ptr %9, align 8
  %67 = load i16, ptr %15, align 2
  %68 = call ptr @PageGetItemId(ptr noundef %66, i16 noundef zeroext %67)
  %69 = call ptr @PageGetItem(ptr noundef %65, ptr noundef %68)
  store ptr %69, ptr %18, align 8
  %70 = load ptr, ptr %18, align 8
  %71 = load i32, ptr %70, align 4
  %72 = and i32 %71, 3
  %73 = icmp eq i32 %72, 3
  br i1 %73, label %74, label %76

74:                                               ; preds = %64
  %75 = load i16, ptr %15, align 2
  store i16 %75, ptr %17, align 2
  store i32 4, ptr %19, align 4
  br label %77

76:                                               ; preds = %64
  store i32 0, ptr %19, align 4
  br label %77

77:                                               ; preds = %76, %74
  call void @llvm.lifetime.end.p0(i64 8, ptr %18) #7
  %78 = load i32, ptr %19, align 4
  switch i32 %78, label %172 [
    i32 0, label %79
    i32 4, label %83
  ]

79:                                               ; preds = %77
  br label %80

80:                                               ; preds = %79
  %81 = load i16, ptr %15, align 2
  %82 = add i16 %81, 1
  store i16 %82, ptr %15, align 2
  br label %58, !llvm.loop !17

83:                                               ; preds = %77, %58
  %84 = load i16, ptr %17, align 2
  %85 = zext i16 %84 to i32
  %86 = icmp ne i32 %85, 0
  br i1 %86, label %87, label %88

87:                                               ; preds = %83
  br label %101

88:                                               ; preds = %83
  %89 = load ptr, ptr %12, align 8
  %90 = icmp ne ptr %89, null
  br i1 %90, label %91, label %98

91:                                               ; preds = %88
  %92 = load ptr, ptr %12, align 8
  %93 = load i16, ptr %92, align 2
  %94 = zext i16 %93 to i32
  %95 = icmp ne i32 %94, 0
  br i1 %95, label %96, label %98

96:                                               ; preds = %91
  %97 = load ptr, ptr %12, align 8
  store i16 0, ptr %97, align 2
  br label %45

98:                                               ; preds = %91, %88
  %99 = load ptr, ptr %14, align 8
  %100 = getelementptr inbounds nuw %struct.SpGistPageOpaqueData, ptr %99, i32 0, i32 2
  store i16 0, ptr %100, align 2
  br label %101

101:                                              ; preds = %98, %87
  %102 = load i16, ptr %17, align 2
  %103 = zext i16 %102 to i32
  %104 = icmp ne i32 %103, 0
  br i1 %104, label %105, label %144

105:                                              ; preds = %101
  %106 = load ptr, ptr %9, align 8
  %107 = load i16, ptr %17, align 2
  call void @PageIndexTupleDelete(ptr noundef %106, i16 noundef zeroext %107)
  %108 = load ptr, ptr %9, align 8
  %109 = load ptr, ptr %10, align 8
  %110 = load i64, ptr %11, align 8
  %111 = load i16, ptr %17, align 2
  %112 = call zeroext i16 @PageAddItemExtended(ptr noundef %108, ptr noundef %109, i64 noundef %110, i16 noundef zeroext %111, i32 noundef 0)
  store i16 %112, ptr %17, align 2
  %113 = load i16, ptr %17, align 2
  %114 = zext i16 %113 to i32
  %115 = icmp ne i32 %114, 0
  br i1 %115, label %116, label %130

116:                                              ; preds = %105
  %117 = load ptr, ptr %14, align 8
  %118 = getelementptr inbounds nuw %struct.SpGistPageOpaqueData, ptr %117, i32 0, i32 2
  %119 = load i16, ptr %118, align 2
  %120 = add i16 %119, -1
  store i16 %120, ptr %118, align 2
  %121 = load ptr, ptr %12, align 8
  %122 = icmp ne ptr %121, null
  br i1 %122, label %123, label %129

123:                                              ; preds = %116
  %124 = load i16, ptr %17, align 2
  %125 = zext i16 %124 to i32
  %126 = add i32 %125, 1
  %127 = trunc i32 %126 to i16
  %128 = load ptr, ptr %12, align 8
  store i16 %127, ptr %128, align 2
  br label %129

129:                                              ; preds = %123, %116
  br label %142

130:                                              ; preds = %105
  br label %131

131:                                              ; preds = %130
  br i1 true, label %132, label %134

132:                                              ; preds = %131
  %133 = call zeroext i1 @errstart_cold(i32 noundef 23, ptr noundef null) #8
  br i1 %133, label %136, label %139

134:                                              ; preds = %131
  %135 = call zeroext i1 @errstart(i32 noundef 23, ptr noundef null)
  br i1 %135, label %136, label %139

136:                                              ; preds = %134, %132
  %137 = load i64, ptr %11, align 8
  %138 = call i32 (ptr, ...) @errmsg_internal(ptr noundef @.str.10, i64 noundef %137)
  call void @errfinish(ptr noundef @.str.1, i32 noundef 1271, ptr noundef @__func__.SpGistPageAddNewItem)
  br label %139

139:                                              ; preds = %136, %134, %132
  unreachable

140:                                              ; No predecessors!
  br label %141

141:                                              ; preds = %140
  br label %142

142:                                              ; preds = %141, %129
  %143 = load i16, ptr %17, align 2
  store i16 %143, ptr %7, align 2
  store i32 1, ptr %19, align 4
  br label %170

144:                                              ; preds = %101
  br label %145

145:                                              ; preds = %144, %34, %6
  %146 = load ptr, ptr %9, align 8
  %147 = load ptr, ptr %10, align 8
  %148 = load i64, ptr %11, align 8
  %149 = call zeroext i16 @PageAddItemExtended(ptr noundef %146, ptr noundef %147, i64 noundef %148, i16 noundef zeroext 0, i32 noundef 0)
  store i16 %149, ptr %17, align 2
  %150 = load i16, ptr %17, align 2
  %151 = zext i16 %150 to i32
  %152 = icmp eq i32 %151, 0
  br i1 %152, label %153, label %168

153:                                              ; preds = %145
  %154 = load i8, ptr %13, align 1, !range !4, !noundef !5
  %155 = trunc i8 %154 to i1
  br i1 %155, label %168, label %156

156:                                              ; preds = %153
  br label %157

157:                                              ; preds = %156
  br i1 true, label %158, label %160

158:                                              ; preds = %157
  %159 = call zeroext i1 @errstart_cold(i32 noundef 21, ptr noundef null) #8
  br i1 %159, label %162, label %165

160:                                              ; preds = %157
  %161 = call zeroext i1 @errstart(i32 noundef 21, ptr noundef null)
  br i1 %161, label %162, label %165

162:                                              ; preds = %160, %158
  %163 = load i64, ptr %11, align 8
  %164 = call i32 (ptr, ...) @errmsg_internal(ptr noundef @.str.10, i64 noundef %163)
  call void @errfinish(ptr noundef @.str.1, i32 noundef 1283, ptr noundef @__func__.SpGistPageAddNewItem)
  br label %165

165:                                              ; preds = %162, %160, %158
  unreachable

166:                                              ; No predecessors!
  br label %167

167:                                              ; preds = %166
  br label %168

168:                                              ; preds = %167, %153, %145
  %169 = load i16, ptr %17, align 2
  store i16 %169, ptr %7, align 2
  store i32 1, ptr %19, align 4
  br label %170

170:                                              ; preds = %168, %142
  call void @llvm.lifetime.end.p0(i64 2, ptr %17) #7
  call void @llvm.lifetime.end.p0(i64 2, ptr %16) #7
  call void @llvm.lifetime.end.p0(i64 2, ptr %15) #7
  call void @llvm.lifetime.end.p0(i64 8, ptr %14) #7
  %171 = load i16, ptr %7, align 2
  ret i16 %171

172:                                              ; preds = %77
  unreachable
}