; Function Attrs: nounwind uwtable
define dso_local zeroext i16 @SpGistPageAddNewItem(ptr noundef readnone captures(none) %0, ptr noundef %1, ptr noundef %2, i64 noundef %3, ptr noundef captures(address_is_null) %4, i1 noundef zeroext %5) local_unnamed_addr #0 {
  %7 = getelementptr inbounds nuw i8, ptr %1, i64 16
  %8 = load i16, ptr %7, align 4
  %9 = zext i16 %8 to i64
  %10 = getelementptr inbounds nuw i8, ptr %1, i64 %9
  %11 = getelementptr inbounds nuw i8, ptr %10, i64 4
  %12 = load i16, ptr %11, align 2
  %.not = icmp eq i16 %12, 0
  br i1 %.not, label %60, label %13

13:                                               ; preds = %6
  %14 = tail call i64 @PageGetExactFreeSpace(ptr noundef nonnull %1) #10
  %15 = add i64 %14, 16
  %16 = add i64 %3, 7
  %17 = and i64 %16, -8
  %.not53 = icmp ult i64 %15, %17
  br i1 %.not53, label %60, label %18

18:                                               ; preds = %13
  %19 = getelementptr i8, ptr %1, i64 12
  %.val = load i16, ptr %19, align 4
  %20 = icmp ult i16 %.val, 25
  %21 = zext i16 %.val to i32
  %22 = add nuw nsw i32 %21, 262120
  %23 = lshr i32 %22, 2
  %24 = trunc i32 %23 to i16
  %.0.i = select i1 %20, i16 0, i16 %24
  %.not54 = icmp eq ptr %4, null
  %25 = getelementptr inbounds nuw i8, ptr %1, i64 24
  br i1 %.not54, label %.split.us, label %.split

.split.us:                                        ; preds = %18
  %.not5664.us = icmp eq i16 %.0.i, 0
  br i1 %.not5664.us, label %.split70.us, label %.lr.ph.us

.lr.ph.us:                                        ; preds = %.split.us, %35
  %.14865.us = phi i16 [ %36, %35 ], [ 1, %.split.us ]
  %26 = zext i16 %.14865.us to i64
  %27 = add nsw i64 %26, -1
  %28 = getelementptr inbounds [0 x %struct.ItemIdData], ptr %25, i64 0, i64 %27
  %.val61.us = load i32, ptr %28, align 4
  %29 = and i32 %.val61.us, 32767
  %30 = zext nneg i32 %29 to i64
  %31 = getelementptr inbounds nuw i8, ptr %1, i64 %30
  %32 = load i32, ptr %31, align 4
  %33 = and i32 %32, 3
  %34 = icmp eq i32 %33, 3
  br i1 %34, label %._crit_edge.us, label %35

35:                                               ; preds = %.lr.ph.us
  %36 = add i16 %.14865.us, 1
  %.not56.us = icmp ugt i16 %36, %.0.i
  br i1 %.not56.us, label %.split70.us, label %.lr.ph.us, !llvm.loop !16

._crit_edge.us:                                   ; preds = %.lr.ph.us
  %.not57.us = icmp eq i16 %.14865.us, 0
  br i1 %.not57.us, label %.split70.us, label %.critedge

.split:                                           ; preds = %18
  %.promoted = load i16, ptr %4, align 2
  br label %37

37:                                               ; preds = %50, %.split
  %38 = phi i16 [ 0, %50 ], [ %.promoted, %.split ]
  %spec.select = tail call i16 @llvm.umax.i16(i16 %38, i16 1)
  %.not5664 = icmp ugt i16 %spec.select, %.0.i
  br i1 %.not5664, label %._crit_edge.thread, label %.lr.ph

.lr.ph:                                           ; preds = %37, %48
  %.14865 = phi i16 [ %49, %48 ], [ %spec.select, %37 ]
  %39 = zext i16 %.14865 to i64
  %40 = add nsw i64 %39, -1
  %41 = getelementptr inbounds [0 x %struct.ItemIdData], ptr %25, i64 0, i64 %40
  %.val61 = load i32, ptr %41, align 4
  %42 = and i32 %.val61, 32767
  %43 = zext nneg i32 %42 to i64
  %44 = getelementptr inbounds nuw i8, ptr %1, i64 %43
  %45 = load i32, ptr %44, align 4
  %46 = and i32 %45, 3
  %47 = icmp eq i32 %46, 3
  br i1 %47, label %._crit_edge, label %48

48:                                               ; preds = %.lr.ph
  %49 = add i16 %.14865, 1
  %.not56 = icmp ugt i16 %49, %.0.i
  br i1 %.not56, label %._crit_edge.thread, label %.lr.ph, !llvm.loop !16

._crit_edge:                                      ; preds = %.lr.ph
  %.not57 = icmp eq i16 %.14865, 0
  br i1 %.not57, label %._crit_edge.thread, label %.critedge

._crit_edge.thread:                               ; preds = %48, %37, %._crit_edge
  %.not58 = icmp eq i16 %38, 0
  br i1 %.not58, label %.split70.us, label %50

50:                                               ; preds = %._crit_edge.thread
  store i16 0, ptr %4, align 2
  br label %37

.split70.us:                                      ; preds = %._crit_edge.thread, %35, %.split.us, %._crit_edge.us
  store i16 0, ptr %11, align 2
  br label %60

.critedge:                                        ; preds = %._crit_edge, %._crit_edge.us
  %.us-phi = phi i16 [ %.14865.us, %._crit_edge.us ], [ %.14865, %._crit_edge ]
  tail call void @PageIndexTupleDelete(ptr noundef nonnull %1, i16 noundef zeroext %.us-phi) #10
  %51 = tail call zeroext i16 @PageAddItemExtended(ptr noundef nonnull %1, ptr noundef %2, i64 noundef %3, i16 noundef zeroext %.us-phi, i32 noundef 0) #10
  %.not59 = icmp eq i16 %51, 0
  br i1 %.not59, label %57, label %52

52:                                               ; preds = %.critedge
  %53 = load i16, ptr %11, align 2
  %54 = add i16 %53, -1
  store i16 %54, ptr %11, align 2
  br i1 %.not54, label %66, label %55

55:                                               ; preds = %52
  %56 = add i16 %51, 1
  store i16 %56, ptr %4, align 2
  br label %66

57:                                               ; preds = %.critedge
  %58 = tail call zeroext i1 @errstart_cold(i32 noundef 23, ptr noundef null) #11
  tail call void @llvm.assume(i1 %58)
  %59 = tail call i32 (ptr, ...) @errmsg_internal(ptr noundef nonnull @.str.10, i64 noundef %3) #10
  tail call void @errfinish(ptr noundef nonnull @.str.1, i32 noundef 1271, ptr noundef nonnull @__func__.SpGistPageAddNewItem) #10
  unreachable

60:                                               ; preds = %.split70.us, %13, %6
  %61 = tail call zeroext i16 @PageAddItemExtended(ptr noundef nonnull %1, ptr noundef %2, i64 noundef %3, i16 noundef zeroext 0, i32 noundef 0) #10
  %62 = icmp ne i16 %61, 0
  %brmerge = or i1 %5, %62
  br i1 %brmerge, label %66, label %63

63:                                               ; preds = %60
  %64 = tail call zeroext i1 @errstart_cold(i32 noundef 21, ptr noundef null) #11
  tail call void @llvm.assume(i1 %64)
  %65 = tail call i32 (ptr, ...) @errmsg_internal(ptr noundef nonnull @.str.10, i64 noundef %3) #10
  tail call void @errfinish(ptr noundef nonnull @.str.1, i32 noundef 1283, ptr noundef nonnull @__func__.SpGistPageAddNewItem) #10
  unreachable

66:                                               ; preds = %60, %55, %52
  %.045 = phi i16 [ %51, %52 ], [ %51, %55 ], [ %61, %60 ]
  ret i16 %.045
}